target datalayout = "e-m:e-p270:32:32-p271:32:32-p272:64:64-i64:64-i128:128-f80:128-n8:16:32:64-S128"
target triple = "x86_64-unknown-linux-gnu"

%"class.absl::lts_20230802::MutexLock" = type { ptr }
%class.anon.53 = type { i8 }

@_ZL17g_initializations = internal global i32 0, align 4
@_ZL12g_basic_init = internal global i32 0, align 4
@_ZL9g_init_mu = internal global ptr null, align 8

; Function Attrs: mustprogress nounwind uwtable
define linkonce_odr void @_ZN4absl12lts_202308029MutexLockD2Ev(ptr noundef nonnull align 8 dereferenceable(8) %this) unnamed_addr #5 comdat align 2 personality ptr @__gxx_personality_v0 {
entry:
  %this.addr = alloca ptr, align 8
  store ptr %this, ptr %this.addr, align 8
  %this1 = load ptr, ptr %this.addr, align 8
  %mu_ = getelementptr inbounds %"class.absl::lts_20230802::MutexLock", ptr %this1, i32 0, i32 0
  %0 = load ptr, ptr %mu_, align 8
  invoke void @_ZN4absl12lts_202308025Mutex6UnlockEv(ptr noundef nonnull align 8 dereferenceable(8) %0)
          to label %invoke.cont unwind label %terminate.lpad

invoke.cont:                                      ; preds = %entry
  ret void

terminate.lpad:                                   ; preds = %entry
  %1 = landingpad { ptr, i32 }
          catch ptr null
  %2 = extractvalue { ptr, i32 } %1, 0
  call void @__clang_call_terminate(ptr %2) #16
  unreachable
}

; Function Attrs: mustprogress uwtable
define linkonce_odr void @_ZN4absl12lts_202308029MutexLockC2EPNS0_5MutexE(ptr noundef nonnull align 8 dereferenceable(8) %this, ptr noundef %mu) unnamed_addr #4 comdat align 2 {
entry:
  %this.addr = alloca ptr, align 8
  %mu.addr = alloca ptr, align 8
  store ptr %this, ptr %this.addr, align 8
  store ptr %mu, ptr %mu.addr, align 8
  %this1 = load ptr, ptr %this.addr, align 8
  %mu_ = getelementptr inbounds %"class.absl::lts_20230802::MutexLock", ptr %this1, i32 0, i32 0
  %0 = load ptr, ptr %mu.addr, align 8
  store ptr %0, ptr %mu_, align 8
  %mu_2 = getelementptr inbounds %"class.absl::lts_20230802::MutexLock", ptr %this1, i32 0, i32 0
  %1 = load ptr, ptr %mu_2, align 8
  call void @_ZN4absl12lts_202308025Mutex4LockEv(ptr noundef nonnull align 8 dereferenceable(8) %1)
  ret void
}

; Function Attrs: mustprogress uwtable
define i32 @grpc_is_initialized() #4 {
entry:
  %r = alloca i32, align 4
  %lock = alloca %"class.absl::lts_20230802::MutexLock", align 8
  call void @gpr_once_init(ptr noundef @_ZL12g_basic_init, ptr noundef @_ZL13do_basic_initv)
  %0 = load ptr, ptr @_ZL9g_init_mu, align 8
  call void @_ZN4absl12lts_202308029MutexLockC2EPNS0_5MutexE(ptr noundef nonnull align 8 dereferenceable(8) %lock, ptr noundef %0)
  %1 = load i32, ptr @_ZL17g_initializations, align 4
  %cmp = icmp sgt i32 %1, 0
  %conv = zext i1 %cmp to i32
  store i32 %conv, ptr %r, align 4
  %2 = load i32, ptr %r, align 4
  call void @_ZN4absl12lts_202308029MutexLockD2Ev(ptr noundef nonnull align 8 dereferenceable(8) %lock) #3
  ret i32 %2
}

; Function Attrs: mustprogress uwtable
define internal noundef zeroext i1 @"_ZZL13do_basic_initvENK3$_0clEv"(ptr noundef nonnull align 1 dereferenceable(1) %this) #4 align 2 {
entry:
  %this.addr = alloca ptr, align 8
  store ptr %this, ptr %this.addr, align 8
  %call = call i32 @grpc_is_initialized()
  %cmp = icmp ne i32 %call, 0
  ret i1 %cmp
}

; Function Attrs: mustprogress uwtable
define internal noundef zeroext i1 @"_ZZL13do_basic_initvEN3$_08__invokeEv"() #4 align 2 {
entry:
  %unused.capture = alloca %class.anon.53, align 1
  %call = call noundef zeroext i1 @"_ZZL13do_basic_initvENK3$_0clEv"(ptr noundef nonnull align 1 dereferenceable(1) %unused.capture)
  ret i1 %call
}