; Function Attrs: mustprogress uwtable
define internal noundef zeroext i1 @"_ZZL13do_basic_initvEN3$_08__invokeEv"() #3 align 2 personality ptr @__gxx_personality_v0 {
entry:
  tail call void @gpr_once_init(ptr noundef nonnull @_ZL12g_basic_init, ptr noundef nonnull @_ZL13do_basic_initv)
  %0 = load ptr, ptr @_ZL9g_init_mu, align 8
  tail call void @_ZN4absl12lts_202308025Mutex4LockEv(ptr noundef nonnull align 8 dereferenceable(8) %0)
  %1 = load i32, ptr @_ZL17g_initializations, align 4
  invoke void @_ZN4absl12lts_202308025Mutex6UnlockEv(ptr noundef nonnull align 8 dereferenceable(8) %0)
          to label %"_ZZL13do_basic_initvENK3$_0clEv.exit" unwind label %terminate.lpad.i.i.i

terminate.lpad.i.i.i:                             ; preds = %entry
  %2 = landingpad { ptr, i32 }
          catch ptr null
  %3 = extractvalue { ptr, i32 } %2, 0
  tail call void @__clang_call_terminate(ptr %3) #15
  unreachable

"_ZZL13do_basic_initvENK3$_0clEv.exit":           ; preds = %entry
  %cmp.i.i = icmp sgt i32 %1, 0
  ret i1 %cmp.i.i
}